target datalayout = "e-m:e-p270:32:32-p271:32:32-p272:64:64-i64:64-i128:128-f80:128-n8:16:32:64-S128"
target triple = "x86_64-pc-linux-gnu"

%struct.archive_match = type { %struct.archive, i32, i32, %struct.match_list, %struct.match_list, i64, i32, i64, i64, i32, i64, i64, i32, i64, i64, i32, i64, i64, %struct.archive_rb_tree, %struct.entry_list, %struct.id_array, %struct.id_array, %struct.match_list, %struct.match_list }
%struct.archive = type { i32, i32, ptr, i32, ptr, i32, i32, ptr, %struct.archive_string, ptr, i32, i32, ptr, ptr, i64, i64, i64, i8, i64 }
%struct.archive_string = type { ptr, i64, i64 }
%struct.archive_rb_tree = type { ptr, ptr }
%struct.entry_list = type { ptr, ptr, i32 }
%struct.id_array = type { i64, i64, ptr }
%struct.match_list = type { ptr, ptr, i32, i32, ptr, i32 }

@.str.21 = private unnamed_addr constant [34 x i8] c"archive_match_include_file_time_w\00", align 1
@.str.32 = private unnamed_addr constant [10 x i8] c"No memory\00", align 1
@.str.35 = private unnamed_addr constant [18 x i8] c"Invalid time flag\00", align 1
@.str.36 = private unnamed_addr constant [13 x i8] c"No time flag\00", align 1
@.str.37 = private unnamed_addr constant [24 x i8] c"Invalid comparison flag\00", align 1
@.str.38 = private unnamed_addr constant [19 x i8] c"No comparison flag\00", align 1
@.str.41 = private unnamed_addr constant [29 x i8] c"Failed to convert WCS to MBS\00", align 1
@.str.42 = private unnamed_addr constant [18 x i8] c"pathname is empty\00", align 1

; Function Attrs: nounwind uwtable
define internal i32 @error_nomem(ptr noundef %0) #0 {
  %2 = alloca ptr, align 8
  store ptr %0, ptr %2, align 8, !tbaa !4
  %3 = load ptr, ptr %2, align 8, !tbaa !4
  %4 = getelementptr inbounds nuw %struct.archive_match, ptr %3, i32 0, i32 0
  call void (ptr, i32, ptr, ...) @archive_set_error(ptr noundef %4, i32 noundef 12, ptr noundef @.str.32)
  %5 = load ptr, ptr %2, align 8, !tbaa !4
  %6 = getelementptr inbounds nuw %struct.archive_match, ptr %5, i32 0, i32 0
  %7 = getelementptr inbounds nuw %struct.archive, ptr %6, i32 0, i32 1
  store i32 32768, ptr %7, align 4, !tbaa !29
  ret i32 -30
}

; Function Attrs: nounwind uwtable
define internal i32 @set_timefilter_pathname_wcs(ptr noundef %0, i32 noundef %1, ptr noundef %2) #0 {
  %4 = alloca i32, align 4
  %5 = alloca ptr, align 8
  %6 = alloca i32, align 4
  %7 = alloca ptr, align 8
  %8 = alloca %struct.archive_string, align 8
  %9 = alloca i32, align 4
  %10 = alloca i32, align 4
  store ptr %0, ptr %5, align 8, !tbaa !4
  store i32 %1, ptr %6, align 4, !tbaa !43
  store ptr %2, ptr %7, align 8, !tbaa !96
  call void @llvm.lifetime.start.p0(i64 24, ptr %8) #9
  call void @llvm.lifetime.start.p0(i64 4, ptr %9) #9
  %11 = load ptr, ptr %7, align 8, !tbaa !96
  %12 = icmp eq ptr %11, null
  br i1 %12, label %17, label %13

13:                                               ; preds = %3
  %14 = load ptr, ptr %7, align 8, !tbaa !96
  %15 = load i32, ptr %14, align 4, !tbaa !43
  %16 = icmp eq i32 %15, 0
  br i1 %16, label %17, label %20

17:                                               ; preds = %13, %3
  %18 = load ptr, ptr %5, align 8, !tbaa !4
  %19 = getelementptr inbounds nuw %struct.archive_match, ptr %18, i32 0, i32 0
  call void (ptr, i32, ptr, ...) @archive_set_error(ptr noundef %19, i32 noundef 22, ptr noundef @.str.42)
  store i32 -25, ptr %4, align 4
  store i32 1, ptr %10, align 4
  br label %49

20:                                               ; preds = %13
  br label %21

21:                                               ; preds = %20
  %22 = getelementptr inbounds nuw %struct.archive_string, ptr %8, i32 0, i32 0
  store ptr null, ptr %22, align 8, !tbaa !97
  %23 = getelementptr inbounds nuw %struct.archive_string, ptr %8, i32 0, i32 1
  store i64 0, ptr %23, align 8, !tbaa !98
  %24 = getelementptr inbounds nuw %struct.archive_string, ptr %8, i32 0, i32 2
  store i64 0, ptr %24, align 8, !tbaa !99
  br label %25

25:                                               ; preds = %21
  br label %26

26:                                               ; preds = %25
  %27 = load ptr, ptr %7, align 8, !tbaa !96
  %28 = load ptr, ptr %7, align 8, !tbaa !96
  %29 = call i64 @wcslen(ptr noundef %28) #11
  %30 = call i32 @archive_string_append_from_wcs(ptr noundef %8, ptr noundef %27, i64 noundef %29)
  %31 = icmp slt i32 %30, 0
  br i1 %31, label %32, label %42

32:                                               ; preds = %26
  call void @archive_string_free(ptr noundef %8)
  %33 = call ptr @__errno_location() #12
  %34 = load i32, ptr %33, align 4, !tbaa !43
  %35 = icmp eq i32 %34, 12
  br i1 %35, label %36, label %39

36:                                               ; preds = %32
  %37 = load ptr, ptr %5, align 8, !tbaa !4
  %38 = call i32 @error_nomem(ptr noundef %37)
  store i32 %38, ptr %4, align 4
  store i32 1, ptr %10, align 4
  br label %49

39:                                               ; preds = %32
  %40 = load ptr, ptr %5, align 8, !tbaa !4
  %41 = getelementptr inbounds nuw %struct.archive_match, ptr %40, i32 0, i32 0
  call void (ptr, i32, ptr, ...) @archive_set_error(ptr noundef %41, i32 noundef -1, ptr noundef @.str.41)
  store i32 -25, ptr %4, align 4
  store i32 1, ptr %10, align 4
  br label %49

42:                                               ; preds = %26
  %43 = load ptr, ptr %5, align 8, !tbaa !4
  %44 = load i32, ptr %6, align 4, !tbaa !43
  %45 = getelementptr inbounds nuw %struct.archive_string, ptr %8, i32 0, i32 0
  %46 = load ptr, ptr %45, align 8, !tbaa !97
  %47 = call i32 @set_timefilter_pathname_mbs(ptr noundef %43, i32 noundef %44, ptr noundef %46)
  store i32 %47, ptr %9, align 4, !tbaa !43
  call void @archive_string_free(ptr noundef %8)
  %48 = load i32, ptr %9, align 4, !tbaa !43
  store i32 %48, ptr %4, align 4
  store i32 1, ptr %10, align 4
  br label %49

49:                                               ; preds = %42, %39, %36, %17
  call void @llvm.lifetime.end.p0(i64 4, ptr %9) #9
  call void @llvm.lifetime.end.p0(i64 24, ptr %8) #9
  %50 = load i32, ptr %4, align 4
  ret i32 %50
}

; Function Attrs: nounwind uwtable
define internal i32 @validate_time_flag(ptr noundef %0, i32 noundef %1, ptr noundef %2) #0 {
  %4 = alloca i32, align 4
  %5 = alloca ptr, align 8
  %6 = alloca i32, align 4
  %7 = alloca ptr, align 8
  %8 = alloca i32, align 4
  %9 = alloca i32, align 4
  store ptr %0, ptr %5, align 8, !tbaa !41
  store i32 %1, ptr %6, align 4, !tbaa !43
  store ptr %2, ptr %7, align 8, !tbaa !94
  br label %10

10:                                               ; preds = %3
  call void @llvm.lifetime.start.p0(i64 4, ptr %8) #9
  %11 = load ptr, ptr %5, align 8, !tbaa !41
  %12 = load ptr, ptr %7, align 8, !tbaa !94
  %13 = call i32 @__archive_check_magic(ptr noundef %11, i32 noundef 212668873, i32 noundef 1, ptr noundef %12)
  store i32 %13, ptr %8, align 4, !tbaa !43
  %14 = load i32, ptr %8, align 4, !tbaa !43
  %15 = icmp eq i32 %14, -30
  br i1 %15, label %16, label %17

16:                                               ; preds = %10
  store i32 -30, ptr %4, align 4
  store i32 1, ptr %9, align 4
  br label %18

17:                                               ; preds = %10
  store i32 0, ptr %9, align 4
  br label %18

18:                                               ; preds = %17, %16
  call void @llvm.lifetime.end.p0(i64 4, ptr %8) #9
  %19 = load i32, ptr %9, align 4
  switch i32 %19, label %48 [
    i32 0, label %20
    i32 1, label %46
  ]

20:                                               ; preds = %18
  br label %21

21:                                               ; preds = %20
  %22 = load i32, ptr %6, align 4, !tbaa !43
  %23 = and i32 %22, 64512
  %24 = icmp ne i32 %23, 0
  br i1 %24, label %25, label %27

25:                                               ; preds = %21
  %26 = load ptr, ptr %5, align 8, !tbaa !41
  call void (ptr, i32, ptr, ...) @archive_set_error(ptr noundef %26, i32 noundef 22, ptr noundef @.str.35)
  store i32 -25, ptr %4, align 4
  br label %46

27:                                               ; preds = %21
  %28 = load i32, ptr %6, align 4, !tbaa !43
  %29 = and i32 %28, 768
  %30 = icmp eq i32 %29, 0
  br i1 %30, label %31, label %33

31:                                               ; preds = %27
  %32 = load ptr, ptr %5, align 8, !tbaa !41
  call void (ptr, i32, ptr, ...) @archive_set_error(ptr noundef %32, i32 noundef 22, ptr noundef @.str.36)
  store i32 -25, ptr %4, align 4
  br label %46

33:                                               ; preds = %27
  %34 = load i32, ptr %6, align 4, !tbaa !43
  %35 = and i32 %34, 236
  %36 = icmp ne i32 %35, 0
  br i1 %36, label %37, label %39

37:                                               ; preds = %33
  %38 = load ptr, ptr %5, align 8, !tbaa !41
  call void (ptr, i32, ptr, ...) @archive_set_error(ptr noundef %38, i32 noundef 22, ptr noundef @.str.37)
  store i32 -25, ptr %4, align 4
  br label %46

39:                                               ; preds = %33
  %40 = load i32, ptr %6, align 4, !tbaa !43
  %41 = and i32 %40, 19
  %42 = icmp eq i32 %41, 0
  br i1 %42, label %43, label %45

43:                                               ; preds = %39
  %44 = load ptr, ptr %5, align 8, !tbaa !41
  call void (ptr, i32, ptr, ...) @archive_set_error(ptr noundef %44, i32 noundef 22, ptr noundef @.str.38)
  store i32 -25, ptr %4, align 4
  br label %46

45:                                               ; preds = %39
  store i32 0, ptr %4, align 4
  br label %46

46:                                               ; preds = %45, %43, %37, %31, %25, %18
  %47 = load i32, ptr %4, align 4
  ret i32 %47

48:                                               ; preds = %18
  unreachable
}

; Function Attrs: nounwind uwtable
define dso_local i32 @archive_match_include_file_time_w(ptr noundef %0, i32 noundef %1, ptr noundef %2) #0 {
  %4 = alloca i32, align 4
  %5 = alloca ptr, align 8
  %6 = alloca i32, align 4
  %7 = alloca ptr, align 8
  %8 = alloca i32, align 4
  %9 = alloca i32, align 4
  store ptr %0, ptr %5, align 8, !tbaa !41
  store i32 %1, ptr %6, align 4, !tbaa !43
  store ptr %2, ptr %7, align 8, !tbaa !96
  call void @llvm.lifetime.start.p0(i64 4, ptr %8) #9
  %10 = load ptr, ptr %5, align 8, !tbaa !41
  %11 = load i32, ptr %6, align 4, !tbaa !43
  %12 = call i32 @validate_time_flag(ptr noundef %10, i32 noundef %11, ptr noundef @.str.21)
  store i32 %12, ptr %8, align 4, !tbaa !43
  %13 = load i32, ptr %8, align 4, !tbaa !43
  %14 = icmp ne i32 %13, 0
  br i1 %14, label %15, label %17

15:                                               ; preds = %3
  %16 = load i32, ptr %8, align 4, !tbaa !43
  store i32 %16, ptr %4, align 4
  store i32 1, ptr %9, align 4
  br label %22

17:                                               ; preds = %3
  %18 = load ptr, ptr %5, align 8, !tbaa !41
  %19 = load i32, ptr %6, align 4, !tbaa !43
  %20 = load ptr, ptr %7, align 8, !tbaa !96
  %21 = call i32 @set_timefilter_pathname_wcs(ptr noundef %18, i32 noundef %19, ptr noundef %20)
  store i32 %21, ptr %4, align 4
  store i32 1, ptr %9, align 4
  br label %22

22:                                               ; preds = %17, %15
  call void @llvm.lifetime.end.p0(i64 4, ptr %8) #9
  %23 = load i32, ptr %4, align 4
  ret i32 %23
}