; Function Attrs: nounwind uwtable
define dso_local range(i32 -30, 1) i32 @archive_match_include_file_time_w(ptr noundef %0, i32 noundef %1, ptr noundef %2) local_unnamed_addr #0 {
  %4 = alloca %struct.archive_string, align 8
  %5 = tail call i32 @__archive_check_magic(ptr noundef %0, i32 noundef 212668873, i32 noundef 1, ptr noundef nonnull @.str.21) #14
  %.not14.i = icmp eq i32 %5, -30
  br i1 %.not14.i, label %validate_time_flag.exit.thread, label %6

6:                                                ; preds = %3
  %7 = and i32 %1, 64512
  %.not.i = icmp eq i32 %7, 0
  br i1 %.not.i, label %8, label %.sink.split.i

8:                                                ; preds = %6
  %9 = and i32 %1, 768
  %10 = icmp eq i32 %9, 0
  br i1 %10, label %.sink.split.i, label %11

11:                                               ; preds = %8
  %12 = and i32 %1, 236
  %.not13.i = icmp eq i32 %12, 0
  br i1 %.not13.i, label %13, label %.sink.split.i

13:                                               ; preds = %11
  %14 = and i32 %1, 19
  %15 = icmp eq i32 %14, 0
  br i1 %15, label %.sink.split.i, label %validate_time_flag.exit

.sink.split.i:                                    ; preds = %13, %11, %8, %6
  %.str.38.sink.i = phi ptr [ @.str.35, %6 ], [ @.str.36, %8 ], [ @.str.37, %11 ], [ @.str.38, %13 ]
  tail call void (ptr, i32, ptr, ...) @archive_set_error(ptr noundef %0, i32 noundef 22, ptr noundef nonnull %.str.38.sink.i) #14
  br label %validate_time_flag.exit.thread

validate_time_flag.exit:                          ; preds = %13
  call void @llvm.lifetime.start.p0(i64 24, ptr nonnull %4) #14
  %16 = icmp eq ptr %2, null
  br i1 %16, label %20, label %17

17:                                               ; preds = %validate_time_flag.exit
  %18 = load i32, ptr %2, align 4, !tbaa !51
  %19 = icmp eq i32 %18, 0
  br i1 %19, label %20, label %21

20:                                               ; preds = %17, %validate_time_flag.exit
  tail call void (ptr, i32, ptr, ...) @archive_set_error(ptr noundef %0, i32 noundef 22, ptr noundef nonnull @.str.42) #14
  br label %set_timefilter_pathname_wcs.exit

21:                                               ; preds = %17
  call void @llvm.memset.p0.i64(ptr noundef nonnull align 8 dereferenceable(24) %4, i8 0, i64 24, i1 false)
  %22 = tail call i64 @wcslen(ptr noundef nonnull %2) #16
  %23 = call i32 @archive_string_append_from_wcs(ptr noundef nonnull %4, ptr noundef nonnull %2, i64 noundef %22) #14
  %24 = icmp slt i32 %23, 0
  br i1 %24, label %25, label %32

25:                                               ; preds = %21
  call void @archive_string_free(ptr noundef nonnull %4) #14
  %26 = tail call ptr @__errno_location() #15
  %27 = load i32, ptr %26, align 4, !tbaa !51
  %28 = icmp eq i32 %27, 12
  br i1 %28, label %29, label %31

29:                                               ; preds = %25
  call void (ptr, i32, ptr, ...) @archive_set_error(ptr noundef %0, i32 noundef 12, ptr noundef nonnull @.str.32) #14
  %30 = getelementptr inbounds nuw i8, ptr %0, i64 4
  store i32 32768, ptr %30, align 4, !tbaa !27
  br label %set_timefilter_pathname_wcs.exit

31:                                               ; preds = %25
  call void (ptr, i32, ptr, ...) @archive_set_error(ptr noundef %0, i32 noundef -1, ptr noundef nonnull @.str.41) #14
  br label %set_timefilter_pathname_wcs.exit

32:                                               ; preds = %21
  %33 = load ptr, ptr %4, align 8, !tbaa !90
  %34 = call fastcc i32 @set_timefilter_pathname_mbs(ptr noundef %0, i32 noundef %1, ptr noundef %33)
  call void @archive_string_free(ptr noundef nonnull %4) #14
  br label %set_timefilter_pathname_wcs.exit

set_timefilter_pathname_wcs.exit:                 ; preds = %20, %29, %31, %32
  %.0.i = phi i32 [ -25, %20 ], [ -30, %29 ], [ -25, %31 ], [ %34, %32 ]
  call void @llvm.lifetime.end.p0(i64 24, ptr nonnull %4) #14
  br label %validate_time_flag.exit.thread

validate_time_flag.exit.thread:                   ; preds = %.sink.split.i, %3, %set_timefilter_pathname_wcs.exit
  %.0 = phi i32 [ %.0.i, %set_timefilter_pathname_wcs.exit ], [ -25, %.sink.split.i ], [ -30, %3 ]
  ret i32 %.0
}